target datalayout = "e-m:e-p270:32:32-p271:32:32-p272:64:64-i64:64-i128:128-f80:128-n8:16:32:64-S128"
target triple = "x86_64-pc-linux-gnu"

%"class.ceres::internal::TripletSparseMatrix" = type { %"class.ceres::internal::SparseMatrix", i32, i32, i32, i32, %"class.std::unique_ptr", %"class.std::unique_ptr", %"class.std::unique_ptr.3" }
%"class.ceres::internal::SparseMatrix" = type { %"class.ceres::internal::LinearOperator" }
%"class.ceres::internal::LinearOperator" = type { ptr }
%"class.std::unique_ptr" = type { %"struct.std::__uniq_ptr_data" }
%"struct.std::__uniq_ptr_data" = type { %"class.std::__uniq_ptr_impl" }
%"class.std::__uniq_ptr_impl" = type { %"class.std::tuple" }
%"class.std::tuple" = type { %"struct.std::_Tuple_impl" }
%"struct.std::_Tuple_impl" = type { %"struct.std::_Head_base.2" }
%"struct.std::_Head_base.2" = type { ptr }
%"class.std::unique_ptr.3" = type { %"struct.std::__uniq_ptr_data.4" }
%"struct.std::__uniq_ptr_data.4" = type { %"class.std::__uniq_ptr_impl.5" }
%"class.std::__uniq_ptr_impl.5" = type { %"class.std::tuple.6" }
%"class.std::tuple.6" = type { %"struct.std::_Tuple_impl.7" }
%"struct.std::_Tuple_impl.7" = type { %"struct.std::_Head_base.10" }
%"struct.std::_Head_base.10" = type { ptr }

; Function Attrs: mustprogress nounwind uwtable
define linkonce_odr hidden noundef nonnull align 8 dereferenceable(8) ptr @_ZNSt10_Head_baseILm0EPdLb0EE7_M_headERKS1_(ptr noundef nonnull align 8 dereferenceable(8) %0) #1 comdat align 2 {
  %2 = alloca ptr, align 8
  store ptr %0, ptr %2, align 8
  %3 = load ptr, ptr %2, align 8
  %4 = getelementptr inbounds %"struct.std::_Head_base.10", ptr %3, i32 0, i32 0
  ret ptr %4
}

; Function Attrs: mustprogress nounwind uwtable
define linkonce_odr hidden noundef nonnull align 8 dereferenceable(8) ptr @_ZNSt10_Head_baseILm0EPiLb0EE7_M_headERKS1_(ptr noundef nonnull align 8 dereferenceable(8) %0) #1 comdat align 2 {
  %2 = alloca ptr, align 8
  store ptr %0, ptr %2, align 8
  %3 = load ptr, ptr %2, align 8
  %4 = getelementptr inbounds %"struct.std::_Head_base.2", ptr %3, i32 0, i32 0
  ret ptr %4
}

; Function Attrs: mustprogress nounwind uwtable
define linkonce_odr hidden noundef nonnull align 8 dereferenceable(8) ptr @_ZNSt11_Tuple_implILm0EJPdSt14default_deleteIA_dEEE7_M_headERKS4_(ptr noundef nonnull align 8 dereferenceable(8) %0) #1 comdat align 2 {
  %2 = alloca ptr, align 8
  store ptr %0, ptr %2, align 8
  %3 = load ptr, ptr %2, align 8
  %4 = call noundef nonnull align 8 dereferenceable(8) ptr @_ZNSt10_Head_baseILm0EPdLb0EE7_M_headERKS1_(ptr noundef nonnull align 8 dereferenceable(8) %3) #15
  ret ptr %4
}

; Function Attrs: mustprogress nounwind uwtable
define linkonce_odr hidden noundef nonnull align 8 dereferenceable(8) ptr @_ZNSt11_Tuple_implILm0EJPiSt14default_deleteIA_iEEE7_M_headERKS4_(ptr noundef nonnull align 8 dereferenceable(8) %0) #1 comdat align 2 {
  %2 = alloca ptr, align 8
  store ptr %0, ptr %2, align 8
  %3 = load ptr, ptr %2, align 8
  %4 = call noundef nonnull align 8 dereferenceable(8) ptr @_ZNSt10_Head_baseILm0EPiLb0EE7_M_headERKS1_(ptr noundef nonnull align 8 dereferenceable(8) %3) #15
  ret ptr %4
}

; Function Attrs: mustprogress nounwind uwtable
define linkonce_odr noundef nonnull align 8 dereferenceable(8) ptr @_ZSt12__get_helperILm0EPdJSt14default_deleteIA_dEEERKT0_RKSt11_Tuple_implIXT_EJS4_DpT1_EE(ptr noundef nonnull align 8 dereferenceable(8) %0) #1 comdat {
  %2 = alloca ptr, align 8
  store ptr %0, ptr %2, align 8
  %3 = load ptr, ptr %2, align 8
  %4 = call noundef nonnull align 8 dereferenceable(8) ptr @_ZNSt11_Tuple_implILm0EJPdSt14default_deleteIA_dEEE7_M_headERKS4_(ptr noundef nonnull align 8 dereferenceable(8) %3) #15
  ret ptr %4
}

; Function Attrs: mustprogress nounwind uwtable
define linkonce_odr noundef nonnull align 8 dereferenceable(8) ptr @_ZSt12__get_helperILm0EPiJSt14default_deleteIA_iEEERKT0_RKSt11_Tuple_implIXT_EJS4_DpT1_EE(ptr noundef nonnull align 8 dereferenceable(8) %0) #1 comdat {
  %2 = alloca ptr, align 8
  store ptr %0, ptr %2, align 8
  %3 = load ptr, ptr %2, align 8
  %4 = call noundef nonnull align 8 dereferenceable(8) ptr @_ZNSt11_Tuple_implILm0EJPiSt14default_deleteIA_iEEE7_M_headERKS4_(ptr noundef nonnull align 8 dereferenceable(8) %3) #15
  ret ptr %4
}

; Function Attrs: mustprogress nounwind uwtable
define linkonce_odr noundef nonnull align 8 dereferenceable(8) ptr @_ZSt3getILm0EJPdSt14default_deleteIA_dEEERKNSt13tuple_elementIXT_ESt5tupleIJDpT0_EEE4typeERKS8_(ptr noundef nonnull align 8 dereferenceable(8) %0) #1 comdat {
  %2 = alloca ptr, align 8
  store ptr %0, ptr %2, align 8
  %3 = load ptr, ptr %2, align 8
  %4 = call noundef nonnull align 8 dereferenceable(8) ptr @_ZSt12__get_helperILm0EPdJSt14default_deleteIA_dEEERKT0_RKSt11_Tuple_implIXT_EJS4_DpT1_EE(ptr noundef nonnull align 8 dereferenceable(8) %3) #15
  ret ptr %4
}

; Function Attrs: mustprogress nounwind uwtable
define linkonce_odr noundef nonnull align 8 dereferenceable(8) ptr @_ZSt3getILm0EJPiSt14default_deleteIA_iEEERKNSt13tuple_elementIXT_ESt5tupleIJDpT0_EEE4typeERKS8_(ptr noundef nonnull align 8 dereferenceable(8) %0) #1 comdat {
  %2 = alloca ptr, align 8
  store ptr %0, ptr %2, align 8
  %3 = load ptr, ptr %2, align 8
  %4 = call noundef nonnull align 8 dereferenceable(8) ptr @_ZSt12__get_helperILm0EPiJSt14default_deleteIA_iEEERKT0_RKSt11_Tuple_implIXT_EJS4_DpT1_EE(ptr noundef nonnull align 8 dereferenceable(8) %3) #15
  ret ptr %4
}

; Function Attrs: mustprogress nounwind uwtable
define linkonce_odr hidden noundef ptr @_ZNKSt15__uniq_ptr_implIdSt14default_deleteIA_dEE6_M_ptrEv(ptr noundef nonnull align 8 dereferenceable(8) %0) #1 comdat align 2 {
  %2 = alloca ptr, align 8
  store ptr %0, ptr %2, align 8
  %3 = load ptr, ptr %2, align 8
  %4 = getelementptr inbounds %"class.std::__uniq_ptr_impl.5", ptr %3, i32 0, i32 0
  %5 = call noundef nonnull align 8 dereferenceable(8) ptr @_ZSt3getILm0EJPdSt14default_deleteIA_dEEERKNSt13tuple_elementIXT_ESt5tupleIJDpT0_EEE4typeERKS8_(ptr noundef nonnull align 8 dereferenceable(8) %4) #15
  %6 = load ptr, ptr %5, align 8
  ret ptr %6
}

; Function Attrs: mustprogress nounwind uwtable
define linkonce_odr hidden noundef ptr @_ZNKSt15__uniq_ptr_implIiSt14default_deleteIA_iEE6_M_ptrEv(ptr noundef nonnull align 8 dereferenceable(8) %0) #1 comdat align 2 {
  %2 = alloca ptr, align 8
  store ptr %0, ptr %2, align 8
  %3 = load ptr, ptr %2, align 8
  %4 = getelementptr inbounds %"class.std::__uniq_ptr_impl", ptr %3, i32 0, i32 0
  %5 = call noundef nonnull align 8 dereferenceable(8) ptr @_ZSt3getILm0EJPiSt14default_deleteIA_iEEERKNSt13tuple_elementIXT_ESt5tupleIJDpT0_EEE4typeERKS8_(ptr noundef nonnull align 8 dereferenceable(8) %4) #15
  %6 = load ptr, ptr %5, align 8
  ret ptr %6
}

; Function Attrs: mustprogress nounwind uwtable
define linkonce_odr hidden noundef ptr @_ZNKSt10unique_ptrIA_dSt14default_deleteIS0_EE3getEv(ptr noundef nonnull align 8 dereferenceable(8) %0) #1 comdat align 2 {
  %2 = alloca ptr, align 8
  store ptr %0, ptr %2, align 8
  %3 = load ptr, ptr %2, align 8
  %4 = getelementptr inbounds %"class.std::unique_ptr.3", ptr %3, i32 0, i32 0
  %5 = call noundef ptr @_ZNKSt15__uniq_ptr_implIdSt14default_deleteIA_dEE6_M_ptrEv(ptr noundef nonnull align 8 dereferenceable(8) %4) #15
  ret ptr %5
}

; Function Attrs: mustprogress nounwind uwtable
define linkonce_odr hidden noundef ptr @_ZNKSt10unique_ptrIA_iSt14default_deleteIS0_EE3getEv(ptr noundef nonnull align 8 dereferenceable(8) %0) #1 comdat align 2 {
  %2 = alloca ptr, align 8
  store ptr %0, ptr %2, align 8
  %3 = load ptr, ptr %2, align 8
  %4 = getelementptr inbounds %"class.std::unique_ptr", ptr %3, i32 0, i32 0
  %5 = call noundef ptr @_ZNKSt15__uniq_ptr_implIiSt14default_deleteIA_iEE6_M_ptrEv(ptr noundef nonnull align 8 dereferenceable(8) %4) #15
  ret ptr %5
}

; Function Attrs: mustprogress nounwind uwtable
define hidden void @_ZN5ceres8internal19TripletSparseMatrix6ResizeEii(ptr noundef nonnull align 8 dereferenceable(48) %0, i32 noundef %1, i32 noundef %2) #1 align 2 {
  %4 = alloca ptr, align 8
  %5 = alloca i32, align 4
  %6 = alloca i32, align 4
  %7 = alloca ptr, align 8
  %8 = alloca ptr, align 8
  %9 = alloca ptr, align 8
  %10 = alloca i32, align 4
  %11 = alloca i32, align 4
  store ptr %0, ptr %4, align 8
  store i32 %1, ptr %5, align 4
  store i32 %2, ptr %6, align 4
  %12 = load ptr, ptr %4, align 8
  %13 = load i32, ptr %5, align 4
  %14 = getelementptr inbounds %"class.ceres::internal::TripletSparseMatrix", ptr %12, i32 0, i32 1
  %15 = load i32, ptr %14, align 8
  %16 = icmp sge i32 %13, %15
  br i1 %16, label %17, label %27

17:                                               ; preds = %3
  %18 = load i32, ptr %6, align 4
  %19 = getelementptr inbounds %"class.ceres::internal::TripletSparseMatrix", ptr %12, i32 0, i32 2
  %20 = load i32, ptr %19, align 4
  %21 = icmp sge i32 %18, %20
  br i1 %21, label %22, label %27

22:                                               ; preds = %17
  %23 = load i32, ptr %5, align 4
  %24 = getelementptr inbounds %"class.ceres::internal::TripletSparseMatrix", ptr %12, i32 0, i32 1
  store i32 %23, ptr %24, align 8
  %25 = load i32, ptr %6, align 4
  %26 = getelementptr inbounds %"class.ceres::internal::TripletSparseMatrix", ptr %12, i32 0, i32 2
  store i32 %25, ptr %26, align 4
  br label %111

27:                                               ; preds = %17, %3
  %28 = load i32, ptr %5, align 4
  %29 = getelementptr inbounds %"class.ceres::internal::TripletSparseMatrix", ptr %12, i32 0, i32 1
  store i32 %28, ptr %29, align 8
  %30 = load i32, ptr %6, align 4
  %31 = getelementptr inbounds %"class.ceres::internal::TripletSparseMatrix", ptr %12, i32 0, i32 2
  store i32 %30, ptr %31, align 4
  %32 = getelementptr inbounds %"class.ceres::internal::TripletSparseMatrix", ptr %12, i32 0, i32 5
  %33 = call noundef ptr @_ZNKSt10unique_ptrIA_iSt14default_deleteIS0_EE3getEv(ptr noundef nonnull align 8 dereferenceable(8) %32) #15
  store ptr %33, ptr %7, align 8
  %34 = getelementptr inbounds %"class.ceres::internal::TripletSparseMatrix", ptr %12, i32 0, i32 6
  %35 = call noundef ptr @_ZNKSt10unique_ptrIA_iSt14default_deleteIS0_EE3getEv(ptr noundef nonnull align 8 dereferenceable(8) %34) #15
  store ptr %35, ptr %8, align 8
  %36 = getelementptr inbounds %"class.ceres::internal::TripletSparseMatrix", ptr %12, i32 0, i32 7
  %37 = call noundef ptr @_ZNKSt10unique_ptrIA_dSt14default_deleteIS0_EE3getEv(ptr noundef nonnull align 8 dereferenceable(8) %36) #15
  store ptr %37, ptr %9, align 8
  store i32 0, ptr %10, align 4
  store i32 0, ptr %11, align 4
  br label %38

38:                                               ; preds = %103, %27
  %39 = load i32, ptr %11, align 4
  %40 = getelementptr inbounds %"class.ceres::internal::TripletSparseMatrix", ptr %12, i32 0, i32 4
  %41 = load i32, ptr %40, align 4
  %42 = icmp slt i32 %39, %41
  br i1 %42, label %43, label %106

43:                                               ; preds = %38
  %44 = load ptr, ptr %7, align 8
  %45 = load i32, ptr %11, align 4
  %46 = sext i32 %45 to i64
  %47 = getelementptr inbounds i32, ptr %44, i64 %46
  %48 = load i32, ptr %47, align 4
  %49 = getelementptr inbounds %"class.ceres::internal::TripletSparseMatrix", ptr %12, i32 0, i32 1
  %50 = load i32, ptr %49, align 8
  %51 = icmp slt i32 %48, %50
  br i1 %51, label %52, label %99

52:                                               ; preds = %43
  %53 = load ptr, ptr %8, align 8
  %54 = load i32, ptr %11, align 4
  %55 = sext i32 %54 to i64
  %56 = getelementptr inbounds i32, ptr %53, i64 %55
  %57 = load i32, ptr %56, align 4
  %58 = getelementptr inbounds %"class.ceres::internal::TripletSparseMatrix", ptr %12, i32 0, i32 2
  %59 = load i32, ptr %58, align 4
  %60 = icmp slt i32 %57, %59
  br i1 %60, label %61, label %99

61:                                               ; preds = %52
  %62 = load i32, ptr %10, align 4
  %63 = icmp ne i32 %62, 0
  br i1 %63, label %64, label %98

64:                                               ; preds = %61
  %65 = load ptr, ptr %7, align 8
  %66 = load i32, ptr %11, align 4
  %67 = sext i32 %66 to i64
  %68 = getelementptr inbounds i32, ptr %65, i64 %67
  %69 = load i32, ptr %68, align 4
  %70 = load ptr, ptr %7, align 8
  %71 = load i32, ptr %11, align 4
  %72 = load i32, ptr %10, align 4
  %73 = sub nsw i32 %71, %72
  %74 = sext i32 %73 to i64
  %75 = getelementptr inbounds i32, ptr %70, i64 %74
  store i32 %69, ptr %75, align 4
  %76 = load ptr, ptr %8, align 8
  %77 = load i32, ptr %11, align 4
  %78 = sext i32 %77 to i64
  %79 = getelementptr inbounds i32, ptr %76, i64 %78
  %80 = load i32, ptr %79, align 4
  %81 = load ptr, ptr %8, align 8
  %82 = load i32, ptr %11, align 4
  %83 = load i32, ptr %10, align 4
  %84 = sub nsw i32 %82, %83
  %85 = sext i32 %84 to i64
  %86 = getelementptr inbounds i32, ptr %81, i64 %85
  store i32 %80, ptr %86, align 4
  %87 = load ptr, ptr %9, align 8
  %88 = load i32, ptr %11, align 4
  %89 = sext i32 %88 to i64
  %90 = getelementptr inbounds double, ptr %87, i64 %89
  %91 = load double, ptr %90, align 8
  %92 = load ptr, ptr %9, align 8
  %93 = load i32, ptr %11, align 4
  %94 = load i32, ptr %10, align 4
  %95 = sub nsw i32 %93, %94
  %96 = sext i32 %95 to i64
  %97 = getelementptr inbounds double, ptr %92, i64 %96
  store double %91, ptr %97, align 8
  br label %98

98:                                               ; preds = %64, %61
  br label %102

99:                                               ; preds = %52, %43
  %100 = load i32, ptr %10, align 4
  %101 = add nsw i32 %100, 1
  store i32 %101, ptr %10, align 4
  br label %102

102:                                              ; preds = %99, %98
  br label %103

103:                                              ; preds = %102
  %104 = load i32, ptr %11, align 4
  %105 = add nsw i32 %104, 1
  store i32 %105, ptr %11, align 4
  br label %38, !llvm.loop !15

106:                                              ; preds = %38
  %107 = load i32, ptr %10, align 4
  %108 = getelementptr inbounds %"class.ceres::internal::TripletSparseMatrix", ptr %12, i32 0, i32 4
  %109 = load i32, ptr %108, align 4
  %110 = sub nsw i32 %109, %107
  store i32 %110, ptr %108, align 4
  br label %111

111:                                              ; preds = %106, %22
  ret void
}