; Function Attrs: mustprogress nofree norecurse nosync nounwind memory(readwrite, inaccessiblemem: none) uwtable
define hidden void @_ZN5ceres8internal19TripletSparseMatrix6ResizeEii(ptr nocapture noundef nonnull align 8 dereferenceable(48) %0, i32 noundef %1, i32 noundef %2) local_unnamed_addr #8 align 2 {
  %4 = getelementptr inbounds i8, ptr %0, i64 8
  %5 = load i32, ptr %4, align 8
  %.not = icmp sgt i32 %5, %1
  br i1 %.not, label %10, label %6

6:                                                ; preds = %3
  %7 = getelementptr inbounds i8, ptr %0, i64 12
  %8 = load i32, ptr %7, align 4
  %.not35 = icmp sgt i32 %8, %2
  br i1 %.not35, label %10, label %9

9:                                                ; preds = %6
  store i32 %1, ptr %4, align 8
  store i32 %2, ptr %7, align 4
  br label %49

10:                                               ; preds = %6, %3
  store i32 %1, ptr %4, align 8
  %11 = getelementptr inbounds i8, ptr %0, i64 12
  store i32 %2, ptr %11, align 4
  %12 = getelementptr inbounds i8, ptr %0, i64 24
  %13 = load ptr, ptr %12, align 8
  %14 = getelementptr inbounds i8, ptr %0, i64 32
  %15 = load ptr, ptr %14, align 8
  %16 = getelementptr inbounds i8, ptr %0, i64 40
  %17 = load ptr, ptr %16, align 8
  %18 = getelementptr inbounds i8, ptr %0, i64 20
  %19 = load i32, ptr %18, align 4
  %20 = icmp sgt i32 %19, 0
  br i1 %20, label %.lr.ph, label %._crit_edge

.lr.ph:                                           ; preds = %10, %44
  %21 = phi i32 [ %45, %44 ], [ %19, %10 ]
  %indvars.iv = phi i64 [ %indvars.iv.next, %44 ], [ 0, %10 ]
  %.03038 = phi i32 [ %.1, %44 ], [ 0, %10 ]
  %22 = getelementptr inbounds i32, ptr %13, i64 %indvars.iv
  %23 = load i32, ptr %22, align 4
  %24 = load i32, ptr %4, align 8
  %25 = icmp slt i32 %23, %24
  br i1 %25, label %26, label %42

26:                                               ; preds = %.lr.ph
  %27 = getelementptr inbounds i32, ptr %15, i64 %indvars.iv
  %28 = load i32, ptr %27, align 4
  %29 = load i32, ptr %11, align 4
  %30 = icmp slt i32 %28, %29
  br i1 %30, label %31, label %42

31:                                               ; preds = %26
  %.not36 = icmp eq i32 %.03038, 0
  br i1 %.not36, label %44, label %32

32:                                               ; preds = %31
  %33 = trunc i64 %indvars.iv to i32
  %34 = sub nsw i32 %33, %.03038
  %35 = sext i32 %34 to i64
  %36 = getelementptr inbounds i32, ptr %13, i64 %35
  store i32 %23, ptr %36, align 4
  %37 = load i32, ptr %27, align 4
  %38 = getelementptr inbounds i32, ptr %15, i64 %35
  store i32 %37, ptr %38, align 4
  %39 = getelementptr inbounds double, ptr %17, i64 %indvars.iv
  %40 = load double, ptr %39, align 8
  %41 = getelementptr inbounds double, ptr %17, i64 %35
  store double %40, ptr %41, align 8
  %.pre = load i32, ptr %18, align 4
  br label %44

42:                                               ; preds = %26, %.lr.ph
  %43 = add nsw i32 %.03038, 1
  br label %44

44:                                               ; preds = %42, %32, %31
  %45 = phi i32 [ %.pre, %32 ], [ %21, %31 ], [ %21, %42 ]
  %.1 = phi i32 [ %.03038, %32 ], [ 0, %31 ], [ %43, %42 ]
  %indvars.iv.next = add nuw nsw i64 %indvars.iv, 1
  %46 = sext i32 %45 to i64
  %47 = icmp slt i64 %indvars.iv.next, %46
  br i1 %47, label %.lr.ph, label %._crit_edge, !llvm.loop !33

._crit_edge:                                      ; preds = %44, %10
  %.030.lcssa = phi i32 [ 0, %10 ], [ %.1, %44 ]
  %.lcssa = phi i32 [ %19, %10 ], [ %45, %44 ]
  %48 = sub nsw i32 %.lcssa, %.030.lcssa
  store i32 %48, ptr %18, align 4
  br label %49

49:                                               ; preds = %._crit_edge, %9
  ret void
}